; Function Attrs: mustprogress noreturn uwtable
define void @_ZN2cv7directx25convertToDirect3DSurface9ERKNS_11_InputArrayEP17IDirect3DSurface9Pv(ptr nocapture noundef nonnull readnone align 8 dereferenceable(24) %0, ptr nocapture noundef readnone %1, ptr nocapture noundef readnone %2) local_unnamed_addr #0 personality ptr @__gxx_personality_v0 {
  %4 = alloca %"class.std::__cxx11::basic_string", align 8
  %5 = alloca %"class.std::allocator", align 1
  call void @_ZNSaIcEC1Ev(ptr noundef nonnull align 1 dereferenceable(1) %5) #4
  invoke void @_ZNSt7__cxx1112basic_stringIcSt11char_traitsIcESaIcEEC1EPKcRKS3_(ptr noundef nonnull align 8 dereferenceable(32) %4, ptr noundef nonnull @.str, ptr noundef nonnull align 1 dereferenceable(1) %5)
          to label %6 unwind label %8

6:                                                ; preds = %3
  invoke void @_ZN2cv5errorEiRKNSt7__cxx1112basic_stringIcSt11char_traitsIcESaIcEEEPKcS9_i(i32 noundef -6, ptr noundef nonnull align 8 dereferenceable(32) %4, ptr noundef nonnull @__func__._ZN2cv7directx25convertToDirect3DSurface9ERKNS_11_InputArrayEP17IDirect3DSurface9Pv, ptr noundef nonnull @.str.1, i32 noundef 1530) #5
          to label %7 unwind label %10

7:                                                ; preds = %6
  unreachable

8:                                                ; preds = %3
  %9 = landingpad { ptr, i32 }
          cleanup
  br label %12

10:                                               ; preds = %6
  %11 = landingpad { ptr, i32 }
          cleanup
  call void @_ZNSt7__cxx1112basic_stringIcSt11char_traitsIcESaIcEED1Ev(ptr noundef nonnull align 8 dereferenceable(32) %4) #4
  br label %12

12:                                               ; preds = %10, %8
  %.pn = phi { ptr, i32 } [ %11, %10 ], [ %9, %8 ]
  call void @_ZNSaIcED1Ev(ptr noundef nonnull align 1 dereferenceable(1) %5) #4
  resume { ptr, i32 } %.pn
}